target datalayout = "e-m:e-p270:32:32-p271:32:32-p272:64:64-i64:64-i128:128-f80:128-n8:16:32:64-S128"
target triple = "x86_64-pc-linux-gnu"

; Function Attrs: mustprogress uwtable
define void @_ZN3zmq13socket_base_t12event_closedERKNS_19endpoint_uri_pair_tEi(ptr noundef nonnull align 8 dereferenceable(1825) %0, ptr noundef nonnull align 8 dereferenceable(68) %1, i32 noundef %2) #0 align 2 {
  %4 = alloca ptr, align 8
  %5 = alloca ptr, align 8
  %6 = alloca i32, align 4
  %7 = alloca [1 x i64], align 8
  store ptr %0, ptr %4, align 8, !tbaa !42
  store ptr %1, ptr %5, align 8, !tbaa !202
  store i32 %2, ptr %6, align 4, !tbaa !21
  %8 = load ptr, ptr %4, align 8
  call void @llvm.lifetime.start.p0(i64 8, ptr %7) #21
  %9 = load i32, ptr %6, align 4, !tbaa !21
  %10 = sext i32 %9 to i64
  store i64 %10, ptr %7, align 8, !tbaa !153
  %11 = load ptr, ptr %5, align 8, !tbaa !202
  %12 = getelementptr inbounds [1 x i64], ptr %7, i64 0, i64 0
  call void @_ZN3zmq13socket_base_t5eventERKNS_19endpoint_uri_pair_tEPmmm(ptr noundef nonnull align 8 dereferenceable(1825) %8, ptr noundef nonnull align 8 dereferenceable(68) %11, ptr noundef %12, i64 noundef 1, i64 noundef 128)
  call void @llvm.lifetime.end.p0(i64 8, ptr %7) #21
  ret void
}